; ModuleID = '7/639.c'
source_filename = "7/639.c"
target datalayout = "e-m:e-p270:32:32-p271:32:32-p272:64:64-i64:64-f80:128-n8:16:32:64-S128"
target triple = "x86_64-pc-linux-gnu"

@.str = private unnamed_addr constant [3 x i8] c"%c\00", align 1

; Function Attrs: noinline nounwind uwtable
define dso_local i32 @main() #0 {
  %1 = alloca i32, align 4
  %2 = alloca [256 x i8], align 16
  %3 = alloca [256 x i8], align 16
  %4 = alloca [256 x i8], align 16
  %5 = alloca [256 x i8], align 16
  %6 = alloca i32, align 4
  %7 = alloca i32, align 4
  %8 = alloca i32, align 4
  %9 = alloca i32, align 4
  %10 = alloca i32, align 4
  %11 = alloca i32, align 4
  %12 = alloca i32, align 4
  %13 = alloca i32, align 4
  %14 = alloca i32, align 4
  %15 = alloca i32, align 4
  %16 = alloca i32, align 4
  store i32 0, i32* %1, align 4
  %17 = getelementptr inbounds [256 x i8], [256 x i8]* %2, i64 0, i64 0
  %18 = call i32 (i8*, ...) bitcast (i32 (...)* @gets to i32 (i8*, ...)*)(i8* %17)
  %19 = getelementptr inbounds [256 x i8], [256 x i8]* %3, i64 0, i64 0
  %20 = call i32 (i8*, ...) bitcast (i32 (...)* @gets to i32 (i8*, ...)*)(i8* %19)
  %21 = getelementptr inbounds [256 x i8], [256 x i8]* %4, i64 0, i64 0
  %22 = call i32 (i8*, ...) bitcast (i32 (...)* @gets to i32 (i8*, ...)*)(i8* %21)
  store i32 0, i32* %6, align 4
  store i32 0, i32* %7, align 4
  %23 = getelementptr inbounds [256 x i8], [256 x i8]* %2, i64 0, i64 0
  %24 = call i64 @strlen(i8* %23) #3
  %25 = trunc i64 %24 to i32
  store i32 %25, i32* %9, align 4
  %26 = getelementptr inbounds [256 x i8], [256 x i8]* %3, i64 0, i64 0
  %27 = call i64 @strlen(i8* %26) #3
  %28 = trunc i64 %27 to i32
  store i32 %28, i32* %10, align 4
  %29 = getelementptr inbounds [256 x i8], [256 x i8]* %4, i64 0, i64 0
  %30 = call i64 @strlen(i8* %29) #3
  %31 = trunc i64 %30 to i32
  store i32 %31, i32* %11, align 4
  store i32 0, i32* %12, align 4
  br label %32

32:                                               ; preds = %72, %0
  %33 = load i32, i32* %12, align 4
  %34 = load i32, i32* %9, align 4
  %35 = icmp slt i32 %33, %34
  br i1 %35, label %36, label %75

36:                                               ; preds = %32
  %37 = load i32, i32* %12, align 4
  %38 = sext i32 %37 to i64
  %39 = getelementptr inbounds [256 x i8], [256 x i8]* %2, i64 0, i64 %38
  %40 = load i8, i8* %39, align 1
  %41 = sext i8 %40 to i32
  %42 = load i32, i32* %6, align 4
  %43 = sext i32 %42 to i64
  %44 = getelementptr inbounds [256 x i8], [256 x i8]* %3, i64 0, i64 %43
  %45 = load i8, i8* %44, align 1
  %46 = sext i8 %45 to i32
  %47 = icmp eq i32 %41, %46
  br i1 %47, label %48, label %58

48:                                               ; preds = %36
  %49 = load i32, i32* %6, align 4
  %50 = add nsw i32 %49, 1
  store i32 %50, i32* %6, align 4
  %51 = load i32, i32* %7, align 4
  %52 = add nsw i32 %51, 1
  store i32 %52, i32* %7, align 4
  %53 = load i32, i32* %7, align 4
  %54 = load i32, i32* %10, align 4
  %55 = icmp eq i32 %53, %54
  br i1 %55, label %56, label %57

56:                                               ; preds = %48
  br label %75

57:                                               ; preds = %48
  br label %70

58:                                               ; preds = %36
  %59 = load i32, i32* %7, align 4
  %60 = load i32, i32* %10, align 4
  %61 = icmp ne i32 %59, %60
  br i1 %61, label %62, label %69

62:                                               ; preds = %58
  %63 = load i32, i32* %7, align 4
  %64 = icmp sgt i32 %63, 0
  br i1 %64, label %65, label %68

65:                                               ; preds = %62
  %66 = load i32, i32* %12, align 4
  %67 = add nsw i32 %66, -1
  store i32 %67, i32* %12, align 4
  br label %68

68:                                               ; preds = %65, %62
  store i32 0, i32* %7, align 4
  store i32 0, i32* %6, align 4
  br label %69

69:                                               ; preds = %68, %58
  br label %70

70:                                               ; preds = %69, %57
  %71 = load i32, i32* %12, align 4
  store i32 %71, i32* %8, align 4
  br label %72

72:                                               ; preds = %70
  %73 = load i32, i32* %12, align 4
  %74 = add nsw i32 %73, 1
  store i32 %74, i32* %12, align 4
  br label %32

75:                                               ; preds = %56, %32
  %76 = load i32, i32* %8, align 4
  %77 = load i32, i32* %6, align 4
  %78 = sub nsw i32 %76, %77
  %79 = add nsw i32 %78, 2
  store i32 %79, i32* %13, align 4
  store i32 0, i32* %14, align 4
  store i32 0, i32* %15, align 4
  br label %80

80:                                               ; preds = %113, %75
  %81 = load i32, i32* %15, align 4
  %82 = load i32, i32* %9, align 4
  %83 = icmp slt i32 %81, %82
  br i1 %83, label %84, label %116

84:                                               ; preds = %80
  %85 = load i32, i32* %15, align 4
  %86 = load i32, i32* %13, align 4
  %87 = icmp sge i32 %85, %86
  br i1 %87, label %88, label %104

88:                                               ; preds = %84
  %89 = load i32, i32* %15, align 4
  %90 = load i32, i32* %13, align 4
  %91 = load i32, i32* %11, align 4
  %92 = add nsw i32 %90, %91
  %93 = icmp slt i32 %89, %92
  br i1 %93, label %94, label %104

94:                                               ; preds = %88
  %95 = load i32, i32* %14, align 4
  %96 = sext i32 %95 to i64
  %97 = getelementptr inbounds [256 x i8], [256 x i8]* %4, i64 0, i64 %96
  %98 = load i8, i8* %97, align 1
  %99 = load i32, i32* %15, align 4
  %100 = sext i32 %99 to i64
  %101 = getelementptr inbounds [256 x i8], [256 x i8]* %5, i64 0, i64 %100
  store i8 %98, i8* %101, align 1
  %102 = load i32, i32* %14, align 4
  %103 = add nsw i32 %102, 1
  store i32 %103, i32* %14, align 4
  br label %112

104:                                              ; preds = %88, %84
  %105 = load i32, i32* %15, align 4
  %106 = sext i32 %105 to i64
  %107 = getelementptr inbounds [256 x i8], [256 x i8]* %2, i64 0, i64 %106
  %108 = load i8, i8* %107, align 1
  %109 = load i32, i32* %15, align 4
  %110 = sext i32 %109 to i64
  %111 = getelementptr inbounds [256 x i8], [256 x i8]* %5, i64 0, i64 %110
  store i8 %108, i8* %111, align 1
  br label %112

112:                                              ; preds = %104, %94
  br label %113

113:                                              ; preds = %112
  %114 = load i32, i32* %15, align 4
  %115 = add nsw i32 %114, 1
  store i32 %115, i32* %15, align 4
  br label %80

116:                                              ; preds = %80
  store i32 0, i32* %16, align 4
  br label %117

117:                                              ; preds = %128, %116
  %118 = load i32, i32* %16, align 4
  %119 = load i32, i32* %9, align 4
  %120 = icmp slt i32 %118, %119
  br i1 %120, label %121, label %131

121:                                              ; preds = %117
  %122 = load i32, i32* %16, align 4
  %123 = sext i32 %122 to i64
  %124 = getelementptr inbounds [256 x i8], [256 x i8]* %5, i64 0, i64 %123
  %125 = load i8, i8* %124, align 1
  %126 = sext i8 %125 to i32
  %127 = call i32 (i8*, ...) @printf(i8* getelementptr inbounds ([3 x i8], [3 x i8]* @.str, i64 0, i64 0), i32 %126)
  br label %128

128:                                              ; preds = %121
  %129 = load i32, i32* %16, align 4
  %130 = add nsw i32 %129, 1
  store i32 %130, i32* %16, align 4
  br label %117

131:                                              ; preds = %117
  ret i32 0
}

declare dso_local i32 @gets(...) #1

; Function Attrs: nounwind readonly
declare dso_local i64 @strlen(i8*) #2

declare dso_local i32 @printf(i8*, ...) #1


!llvm.module.flags = !{!0}
!llvm.ident = !{!1}

!0 = !{i32 1, !"wchar_size", i32 4}
!1 = !{!"clang version 10.0.0-4ubuntu1 "}
